; Function Attrs: mustprogress uwtable
define void @_ZNK6icu_7517RuleBasedCollator23internalAddContractionsEiRNS_10UnicodeSetER10UErrorCode(ptr nocapture noundef nonnull readonly align 8 dereferenceable(272) %this, i32 noundef %c, ptr noundef nonnull align 8 dereferenceable(200) %set, ptr noundef nonnull align 4 dereferenceable(4) %errorCode) local_unnamed_addr #1 align 2 personality ptr @__gxx_personality_v0 {
entry:
  %ref.tmp = alloca %"class.icu_75::ContractionsAndExpansions", align 8
  %0 = load i32, ptr %errorCode, align 4
  %cmp.i = icmp slt i32 %0, 1
  br i1 %cmp.i, label %if.end, label %return

if.end:                                           ; preds = %entry
  store ptr null, ptr %ref.tmp, align 8
  %contractions.i = getelementptr inbounds i8, ptr %ref.tmp, i64 8
  store ptr %set, ptr %contractions.i, align 8
  %expansions.i = getelementptr inbounds i8, ptr %ref.tmp, i64 16
  %tailored.i = getelementptr inbounds i8, ptr %ref.tmp, i64 40
  call void @llvm.memset.p0.i64(ptr noundef nonnull align 8 dereferenceable(18) %expansions.i, i8 0, i64 18, i1 false)
  call void @_ZN6icu_7510UnicodeSetC1Ev(ptr noundef nonnull align 8 dereferenceable(200) %tailored.i)
  %ranges.i = getelementptr inbounds i8, ptr %ref.tmp, i64 240
  invoke void @_ZN6icu_7510UnicodeSetC1Ev(ptr noundef nonnull align 8 dereferenceable(200) %ranges.i)
          to label %_ZN6icu_7525ContractionsAndExpansionsC2EPNS_10UnicodeSetES2_PNS0_6CESinkEa.exit unwind label %lpad.i

common.resume:                                    ; preds = %lpad, %lpad.i
  %common.resume.op = phi { ptr, i32 } [ %1, %lpad.i ], [ %3, %lpad ]
  resume { ptr, i32 } %common.resume.op

lpad.i:                                           ; preds = %if.end
  %1 = landingpad { ptr, i32 }
          cleanup
  call void @_ZN6icu_7510UnicodeSetD1Ev(ptr noundef nonnull align 8 dereferenceable(200) %tailored.i) #17
  br label %common.resume

_ZN6icu_7525ContractionsAndExpansionsC2EPNS_10UnicodeSetES2_PNS0_6CESinkEa.exit: ; preds = %if.end
  %unreversedPrefix.i = getelementptr inbounds i8, ptr %ref.tmp, i64 440
  store ptr getelementptr inbounds ({ [13 x ptr] }, ptr @_ZTVN6icu_7513UnicodeStringE, i64 0, i32 0, i64 2), ptr %unreversedPrefix.i, align 8
  %fUnion2.i.i = getelementptr inbounds i8, ptr %ref.tmp, i64 448
  store i16 2, ptr %fUnion2.i.i, align 8
  %suffix.i = getelementptr inbounds i8, ptr %ref.tmp, i64 504
  store ptr null, ptr %suffix.i, align 8
  %errorCode.i = getelementptr inbounds i8, ptr %ref.tmp, i64 760
  store i32 0, ptr %errorCode.i, align 8
  %data = getelementptr inbounds i8, ptr %this, i64 8
  %2 = load ptr, ptr %data, align 8
  invoke void @_ZN6icu_7525ContractionsAndExpansions12forCodePointEPKNS_13CollationDataEiR10UErrorCode(ptr noundef nonnull align 8 dereferenceable(764) %ref.tmp, ptr noundef %2, i32 noundef %c, ptr noundef nonnull align 4 dereferenceable(4) %errorCode)
          to label %invoke.cont unwind label %lpad

invoke.cont:                                      ; preds = %_ZN6icu_7525ContractionsAndExpansionsC2EPNS_10UnicodeSetES2_PNS0_6CESinkEa.exit
  call void @_ZN6icu_7513UnicodeStringD1Ev(ptr noundef nonnull align 8 dereferenceable(64) %unreversedPrefix.i) #17
  call void @_ZN6icu_7510UnicodeSetD1Ev(ptr noundef nonnull align 8 dereferenceable(200) %ranges.i) #17
  call void @_ZN6icu_7510UnicodeSetD1Ev(ptr noundef nonnull align 8 dereferenceable(200) %tailored.i) #17
  br label %return

return:                                           ; preds = %entry, %invoke.cont
  ret void

lpad:                                             ; preds = %_ZN6icu_7525ContractionsAndExpansionsC2EPNS_10UnicodeSetES2_PNS0_6CESinkEa.exit
  %3 = landingpad { ptr, i32 }
          cleanup
  call void @_ZN6icu_7525ContractionsAndExpansionsD2Ev(ptr noundef nonnull align 8 dereferenceable(764) %ref.tmp) #17
  br label %common.resume
}